; Function Attrs: mustprogress uwtable
define dso_local void @_ZN23btPoint2PointConstraintC2ER11btRigidBodyRK9btVector3(ptr noundef nonnull align 8 dereferenceable(384) %this, ptr noundef nonnull align 8 dereferenceable(744) %rbA, ptr nocapture noundef nonnull readonly align 4 dereferenceable(16) %pivotInA) unnamed_addr #4 align 2 personality ptr @__gxx_personality_v0 {
entry:
  tail call void @_ZN17btTypedConstraintC2E21btTypedConstraintTypeR11btRigidBody(ptr noundef nonnull align 8 dereferenceable(72) %this, i32 noundef 3, ptr noundef nonnull align 8 dereferenceable(744) %rbA)
  store ptr getelementptr inbounds ({ [14 x ptr] }, ptr @_ZTV23btPoint2PointConstraint, i64 0, i32 0, i64 2), ptr %this, align 8
  %m_pivotInA = getelementptr inbounds i8, ptr %this, i64 324
  tail call void @llvm.memcpy.p0.p0.i64(ptr noundef nonnull align 4 dereferenceable(16) %m_pivotInA, ptr noundef nonnull align 4 dereferenceable(16) %pivotInA, i64 16, i1 false)
  %m_worldTransform.i = getelementptr inbounds i8, ptr %rbA, i64 8
  %arrayidx.i.i = getelementptr inbounds i8, ptr %rbA, i64 24
  %arrayidx.i1.i = getelementptr inbounds i8, ptr %rbA, i64 40
  %0 = load float, ptr %pivotInA, align 4
  %1 = load <4 x float>, ptr %m_worldTransform.i, align 8
  %2 = shufflevector <4 x float> %1, <4 x float> poison, <2 x i32> <i32 0, i32 poison>
  %arrayidx5.i.i.i = getelementptr inbounds i8, ptr %pivotInA, i64 4
  %3 = load float, ptr %arrayidx5.i.i.i, align 4
  %arrayidx7.i.i.i = getelementptr inbounds i8, ptr %rbA, i64 12
  %4 = load <4 x float>, ptr %arrayidx7.i.i.i, align 4
  %5 = shufflevector <4 x float> %4, <4 x float> poison, <2 x i32> <i32 0, i32 poison>
  %arrayidx10.i.i.i = getelementptr inbounds i8, ptr %pivotInA, i64 8
  %6 = load float, ptr %arrayidx10.i.i.i, align 4
  %arrayidx12.i.i.i = getelementptr inbounds i8, ptr %rbA, i64 16
  %7 = load <4 x float>, ptr %arrayidx12.i.i.i, align 8
  %8 = shufflevector <4 x float> %7, <4 x float> poison, <2 x i32> <i32 0, i32 poison>
  %9 = load float, ptr %arrayidx.i.i, align 8
  %arrayidx7.i2.i.i = getelementptr inbounds i8, ptr %rbA, i64 28
  %10 = load float, ptr %arrayidx7.i2.i.i, align 4
  %arrayidx12.i5.i.i = getelementptr inbounds i8, ptr %rbA, i64 32
  %11 = load float, ptr %arrayidx12.i5.i.i, align 8
  %12 = load float, ptr %arrayidx.i1.i, align 8
  %arrayidx7.i7.i.i = getelementptr inbounds i8, ptr %rbA, i64 44
  %13 = load float, ptr %arrayidx7.i7.i.i, align 4
  %mul8.i8.i.i = fmul float %3, %13
  %14 = tail call float @llvm.fmuladd.f32(float %0, float %12, float %mul8.i8.i.i)
  %arrayidx12.i10.i.i = getelementptr inbounds i8, ptr %rbA, i64 48
  %15 = load float, ptr %arrayidx12.i10.i.i, align 8
  %16 = tail call noundef float @llvm.fmuladd.f32(float %6, float %15, float %14)
  %m_origin.i = getelementptr inbounds i8, ptr %rbA, i64 56
  %17 = insertelement <2 x float> poison, float %3, i64 0
  %18 = shufflevector <2 x float> %17, <2 x float> poison, <2 x i32> zeroinitializer
  %19 = insertelement <2 x float> %5, float %10, i64 1
  %20 = fmul <2 x float> %18, %19
  %21 = insertelement <2 x float> poison, float %0, i64 0
  %22 = shufflevector <2 x float> %21, <2 x float> poison, <2 x i32> zeroinitializer
  %23 = insertelement <2 x float> %2, float %9, i64 1
  %24 = tail call <2 x float> @llvm.fmuladd.v2f32(<2 x float> %22, <2 x float> %23, <2 x float> %20)
  %25 = insertelement <2 x float> poison, float %6, i64 0
  %26 = shufflevector <2 x float> %25, <2 x float> poison, <2 x i32> zeroinitializer
  %27 = insertelement <2 x float> %8, float %11, i64 1
  %28 = tail call <2 x float> @llvm.fmuladd.v2f32(<2 x float> %26, <2 x float> %27, <2 x float> %24)
  %29 = load <2 x float>, ptr %m_origin.i, align 8
  %30 = fadd <2 x float> %28, %29
  %arrayidx13.i.i = getelementptr inbounds i8, ptr %rbA, i64 64
  %31 = load float, ptr %arrayidx13.i.i, align 8
  %add14.i.i = fadd float %16, %31
  %retval.sroa.3.12.vec.insert.i4.i = insertelement <2 x float> <float poison, float 0.000000e+00>, float %add14.i.i, i64 0
  %m_pivotInB = getelementptr inbounds i8, ptr %this, i64 340
  store <2 x float> %30, ptr %m_pivotInB, align 4
  %32 = getelementptr inbounds i8, ptr %this, i64 348
  store <2 x float> %retval.sroa.3.12.vec.insert.i4.i, ptr %32, align 4
  %m_flags = getelementptr inbounds i8, ptr %this, i64 356
  store i32 0, ptr %m_flags, align 4
  %m_useSolveConstraintObsolete = getelementptr inbounds i8, ptr %this, i64 368
  store i8 0, ptr %m_useSolveConstraintObsolete, align 8
  %m_setting = getelementptr inbounds i8, ptr %this, i64 372
  store <2 x float> <float 0x3FD3333340000000, float 1.000000e+00>, ptr %m_setting, align 4
  %m_impulseClamp.i = getelementptr inbounds i8, ptr %this, i64 380
  store float 0.000000e+00, ptr %m_impulseClamp.i, align 4
  ret void
}